; Function Attrs: mustprogress uwtable
define hidden void @_ZN2cv4text7fitLineENS_6Point_IiEES2_RfS3_(i64 %0, i64 %1, ptr noundef nonnull writeonly align 4 captures(none) dereferenceable(4) %2, ptr noundef nonnull writeonly align 4 captures(none) dereferenceable(4) %3) local_unnamed_addr #3 personality ptr @__gxx_personality_v0 {
  %5 = alloca %"class.std::__cxx11::basic_string", align 8
  %6 = alloca %"class.std::allocator.4", align 1
  %.sroa.05.0.extract.trunc = trunc i64 %0 to i32
  %.sroa.0.0.extract.trunc = trunc i64 %1 to i32
  %.not = icmp eq i32 %.sroa.05.0.extract.trunc, %.sroa.0.0.extract.trunc
  br i1 %.not, label %7, label %17

7:                                                ; preds = %4
  call void @llvm.lifetime.start.p0(i64 32, ptr nonnull %5) #37
  call void @llvm.lifetime.start.p0(i64 1, ptr nonnull %6) #37
  call void @_ZNSt7__cxx1112basic_stringIcSt11char_traitsIcESaIcEEC2EPKcRKS3_(ptr noundef nonnull align 8 dereferenceable(32) %5, ptr noundef nonnull @.str.24, ptr noundef nonnull align 1 dereferenceable(1) %6)
  invoke void @_ZN2cv5errorEiRKNSt7__cxx1112basic_stringIcSt11char_traitsIcESaIcEEEPKcS9_i(i32 noundef -215, ptr noundef nonnull align 8 dereferenceable(32) %5, ptr noundef nonnull @__func__._ZN2cv4text7fitLineENS_6Point_IiEES2_RfS3_, ptr noundef nonnull @.str.1, i32 noundef 3173) #38
          to label %8 unwind label %9

8:                                                ; preds = %7
  unreachable

9:                                                ; preds = %7
  %10 = landingpad { ptr, i32 }
          cleanup
  %11 = load ptr, ptr %5, align 8, !tbaa !76
  %12 = getelementptr inbounds nuw i8, ptr %5, i64 16
  %13 = icmp eq ptr %11, %12
  br i1 %13, label %_ZNKSt7__cxx1112basic_stringIcSt11char_traitsIcESaIcEE11_M_is_localEv.exit.thread.i.i, label %_ZNKSt7__cxx1112basic_stringIcSt11char_traitsIcESaIcEE11_M_is_localEv.exit.i.i

_ZNKSt7__cxx1112basic_stringIcSt11char_traitsIcESaIcEE11_M_is_localEv.exit.thread.i.i: ; preds = %9
  %14 = getelementptr inbounds nuw i8, ptr %5, i64 8
  %15 = load i64, ptr %14, align 8, !tbaa !79
  %16 = icmp ult i64 %15, 16
  call void @llvm.assume(i1 %16)
  br label %_ZNSt7__cxx1112basic_stringIcSt11char_traitsIcESaIcEED2Ev.exit

_ZNKSt7__cxx1112basic_stringIcSt11char_traitsIcESaIcEE11_M_is_localEv.exit.i.i: ; preds = %9
  call void @_ZdlPv(ptr noundef %11) #36
  br label %_ZNSt7__cxx1112basic_stringIcSt11char_traitsIcESaIcEED2Ev.exit

_ZNSt7__cxx1112basic_stringIcSt11char_traitsIcESaIcEED2Ev.exit: ; preds = %_ZNKSt7__cxx1112basic_stringIcSt11char_traitsIcESaIcEE11_M_is_localEv.exit.i.i, %_ZNKSt7__cxx1112basic_stringIcSt11char_traitsIcESaIcEE11_M_is_localEv.exit.thread.i.i
  call void @llvm.lifetime.end.p0(i64 1, ptr nonnull %6) #37
  call void @llvm.lifetime.end.p0(i64 32, ptr nonnull %5) #37
  resume { ptr, i32 } %10

17:                                               ; preds = %4
  %.sroa.3.0.extract.shift = lshr i64 %1, 32
  %.sroa.3.0.extract.trunc = trunc nuw i64 %.sroa.3.0.extract.shift to i32
  %.sroa.4.0.extract.shift = lshr i64 %0, 32
  %.sroa.4.0.extract.trunc = trunc nuw i64 %.sroa.4.0.extract.shift to i32
  %18 = sub nsw i32 %.sroa.3.0.extract.trunc, %.sroa.4.0.extract.trunc
  %19 = sitofp i32 %18 to float
  %20 = sub nsw i32 %.sroa.0.0.extract.trunc, %.sroa.05.0.extract.trunc
  %21 = sitofp i32 %20 to float
  %22 = fdiv float %19, %21
  store float %22, ptr %3, align 4, !tbaa !252
  %23 = fneg float %22
  %24 = sitofp i32 %.sroa.05.0.extract.trunc to float
  %25 = sitofp i32 %.sroa.4.0.extract.trunc to float
  %26 = tail call float @llvm.fmuladd.f32(float %23, float %24, float %25)
  store float %26, ptr %2, align 4, !tbaa !252
  ret void
}